target datalayout = "e-m:e-p270:32:32-p271:32:32-p272:64:64-i64:64-i128:128-f80:128-n8:16:32:64-S128"
target triple = "x86_64-pc-linux-gnu"

%struct.PJconsts = type { ptr, ptr, ptr, ptr, ptr, ptr, ptr, ptr, ptr, ptr, ptr, ptr, i32, ptr, ptr, ptr, ptr, ptr, ptr, ptr, ptr, double, double, double, double, double, double, double, double, double, double, double, double, double, double, double, double, double, double, double, double, double, double, i32, i32, i32, i32, i32, i32, i32, i32, i32, i32, i32, ptr, ptr, ptr, ptr, ptr, ptr, double, double, double, double, double, double, double, double, double, double, double, i32, [7 x double], i32, ptr, ptr, double, double, i32, [4 x i8], %"class.std::shared_ptr", i8, double, i8, %"class.std::__cxx11::basic_string", %"class.std::__cxx11::basic_string", %"class.std::__cxx11::basic_string", i8, %"class.std::vector", i32, %"class.std::vector.3", i32, i8, i8, i8, ptr }
%"class.std::shared_ptr" = type { %"class.std::__shared_ptr" }
%"class.std::__shared_ptr" = type { ptr, %"class.std::__shared_count" }
%"class.std::__shared_count" = type { ptr }
%"class.std::__cxx11::basic_string" = type { %"struct.std::__cxx11::basic_string<char>::_Alloc_hider", i64, %union.anon }
%"struct.std::__cxx11::basic_string<char>::_Alloc_hider" = type { ptr }
%union.anon = type { i64, [8 x i8] }
%"class.std::vector" = type { %"struct.std::_Vector_base" }
%"struct.std::_Vector_base" = type { %"struct.std::_Vector_base<osgeo::proj::operation::GridDescription, std::allocator<osgeo::proj::operation::GridDescription>>::_Vector_impl" }
%"struct.std::_Vector_base<osgeo::proj::operation::GridDescription, std::allocator<osgeo::proj::operation::GridDescription>>::_Vector_impl" = type { %"struct.std::_Vector_base<osgeo::proj::operation::GridDescription, std::allocator<osgeo::proj::operation::GridDescription>>::_Vector_impl_data" }
%"struct.std::_Vector_base<osgeo::proj::operation::GridDescription, std::allocator<osgeo::proj::operation::GridDescription>>::_Vector_impl_data" = type { ptr, ptr, ptr }
%"class.std::vector.3" = type { %"struct.std::_Vector_base.4" }
%"struct.std::_Vector_base.4" = type { %"struct.std::_Vector_base<PJCoordOperation, std::allocator<PJCoordOperation>>::_Vector_impl" }
%"struct.std::_Vector_base<PJCoordOperation, std::allocator<PJCoordOperation>>::_Vector_impl" = type { %"struct.std::_Vector_base<PJCoordOperation, std::allocator<PJCoordOperation>>::_Vector_impl_data" }
%"struct.std::_Vector_base<PJCoordOperation, std::allocator<PJCoordOperation>>::_Vector_impl_data" = type { ptr, ptr, ptr }
%"struct.pj_imoll_ns::pj_imoll_data" = type { [6 x ptr], double, double, double, double }

; Function Attrs: mustprogress uwtable
define internal noundef zeroext i1 @_ZL10setup_zoneP8PJconstsPN11pj_imoll_ns13pj_imoll_dataEiPFS0_S0_Eddd(ptr noundef %0, ptr noundef %1, i32 noundef %2, ptr noundef %3, double noundef %4, double noundef %5, double noundef %6) #0 {
  %8 = alloca i1, align 1
  %9 = alloca ptr, align 8
  %10 = alloca ptr, align 8
  %11 = alloca i32, align 4
  %12 = alloca ptr, align 8
  %13 = alloca double, align 8
  %14 = alloca double, align 8
  %15 = alloca double, align 8
  store ptr %0, ptr %9, align 8, !tbaa !3
  store ptr %1, ptr %10, align 8, !tbaa !41
  store i32 %2, ptr %11, align 4, !tbaa !54
  store ptr %3, ptr %12, align 8, !tbaa !55
  store double %4, ptr %13, align 8, !tbaa !56
  store double %5, ptr %14, align 8, !tbaa !56
  store double %6, ptr %15, align 8, !tbaa !56
  %16 = load ptr, ptr %12, align 8, !tbaa !55
  %17 = call noundef ptr %16(ptr noundef null)
  %18 = load ptr, ptr %10, align 8, !tbaa !41
  %19 = getelementptr inbounds nuw %"struct.pj_imoll_ns::pj_imoll_data", ptr %18, i32 0, i32 0
  %20 = load i32, ptr %11, align 4, !tbaa !54
  %21 = sub nsw i32 %20, 1
  %22 = sext i32 %21 to i64
  %23 = getelementptr inbounds [6 x ptr], ptr %19, i64 0, i64 %22
  store ptr %17, ptr %23, align 8, !tbaa !3
  %24 = icmp ne ptr %17, null
  br i1 %24, label %26, label %25

25:                                               ; preds = %7
  store i1 false, ptr %8, align 1
  br label %83

26:                                               ; preds = %7
  %27 = load ptr, ptr %12, align 8, !tbaa !55
  %28 = load ptr, ptr %10, align 8, !tbaa !41
  %29 = getelementptr inbounds nuw %"struct.pj_imoll_ns::pj_imoll_data", ptr %28, i32 0, i32 0
  %30 = load i32, ptr %11, align 4, !tbaa !54
  %31 = sub nsw i32 %30, 1
  %32 = sext i32 %31 to i64
  %33 = getelementptr inbounds [6 x ptr], ptr %29, i64 0, i64 %32
  %34 = load ptr, ptr %33, align 8, !tbaa !3
  %35 = call noundef ptr %27(ptr noundef %34)
  %36 = load ptr, ptr %10, align 8, !tbaa !41
  %37 = getelementptr inbounds nuw %"struct.pj_imoll_ns::pj_imoll_data", ptr %36, i32 0, i32 0
  %38 = load i32, ptr %11, align 4, !tbaa !54
  %39 = sub nsw i32 %38, 1
  %40 = sext i32 %39 to i64
  %41 = getelementptr inbounds [6 x ptr], ptr %37, i64 0, i64 %40
  store ptr %35, ptr %41, align 8, !tbaa !3
  %42 = icmp ne ptr %35, null
  br i1 %42, label %44, label %43

43:                                               ; preds = %26
  store i1 false, ptr %8, align 1
  br label %83

44:                                               ; preds = %26
  %45 = load ptr, ptr %9, align 8, !tbaa !3
  %46 = getelementptr inbounds nuw %struct.PJconsts, ptr %45, i32 0, i32 0
  %47 = load ptr, ptr %46, align 8, !tbaa !57
  %48 = load ptr, ptr %10, align 8, !tbaa !41
  %49 = getelementptr inbounds nuw %"struct.pj_imoll_ns::pj_imoll_data", ptr %48, i32 0, i32 0
  %50 = load i32, ptr %11, align 4, !tbaa !54
  %51 = sub nsw i32 %50, 1
  %52 = sext i32 %51 to i64
  %53 = getelementptr inbounds [6 x ptr], ptr %49, i64 0, i64 %52
  %54 = load ptr, ptr %53, align 8, !tbaa !3
  %55 = getelementptr inbounds nuw %struct.PJconsts, ptr %54, i32 0, i32 0
  store ptr %47, ptr %55, align 8, !tbaa !57
  %56 = load double, ptr %13, align 8, !tbaa !56
  %57 = load ptr, ptr %10, align 8, !tbaa !41
  %58 = getelementptr inbounds nuw %"struct.pj_imoll_ns::pj_imoll_data", ptr %57, i32 0, i32 0
  %59 = load i32, ptr %11, align 4, !tbaa !54
  %60 = sub nsw i32 %59, 1
  %61 = sext i32 %60 to i64
  %62 = getelementptr inbounds [6 x ptr], ptr %58, i64 0, i64 %61
  %63 = load ptr, ptr %62, align 8, !tbaa !3
  %64 = getelementptr inbounds nuw %struct.PJconsts, ptr %63, i32 0, i32 62
  store double %56, ptr %64, align 8, !tbaa !44
  %65 = load double, ptr %14, align 8, !tbaa !56
  %66 = load ptr, ptr %10, align 8, !tbaa !41
  %67 = getelementptr inbounds nuw %"struct.pj_imoll_ns::pj_imoll_data", ptr %66, i32 0, i32 0
  %68 = load i32, ptr %11, align 4, !tbaa !54
  %69 = sub nsw i32 %68, 1
  %70 = sext i32 %69 to i64
  %71 = getelementptr inbounds [6 x ptr], ptr %67, i64 0, i64 %70
  %72 = load ptr, ptr %71, align 8, !tbaa !3
  %73 = getelementptr inbounds nuw %struct.PJconsts, ptr %72, i32 0, i32 63
  store double %65, ptr %73, align 8, !tbaa !58
  %74 = load double, ptr %15, align 8, !tbaa !56
  %75 = load ptr, ptr %10, align 8, !tbaa !41
  %76 = getelementptr inbounds nuw %"struct.pj_imoll_ns::pj_imoll_data", ptr %75, i32 0, i32 0
  %77 = load i32, ptr %11, align 4, !tbaa !54
  %78 = sub nsw i32 %77, 1
  %79 = sext i32 %78 to i64
  %80 = getelementptr inbounds [6 x ptr], ptr %76, i64 0, i64 %79
  %81 = load ptr, ptr %80, align 8, !tbaa !3
  %82 = getelementptr inbounds nuw %struct.PJconsts, ptr %81, i32 0, i32 60
  store double %74, ptr %82, align 8, !tbaa !59
  store i1 true, ptr %8, align 1
  br label %83

83:                                               ; preds = %44, %43, %25
  %84 = load i1, ptr %8, align 1
  ret i1 %84
}