; Function Attrs: mustprogress uwtable
define internal fastcc noundef zeroext i1 @_ZL10setup_zoneP8PJconstsPN11pj_imoll_ns13pj_imoll_dataEiPFS0_S0_Eddd(ptr noundef readonly captures(none) %0, ptr noundef nonnull writeonly captures(none) %1, i32 noundef range(i32 1, 7) %2, double noundef %3, double noundef %4) unnamed_addr #0 {
  %6 = tail call noundef ptr @pj_moll(ptr noundef null)
  %7 = add nsw i32 %2, -1
  %8 = zext nneg i32 %7 to i64
  %9 = getelementptr inbounds nuw [6 x ptr], ptr %1, i64 0, i64 %8
  store ptr %6, ptr %9, align 8, !tbaa !41
  %.not = icmp eq ptr %6, null
  br i1 %.not, label %17, label %10

10:                                               ; preds = %5
  %11 = tail call noundef ptr @pj_moll(ptr noundef nonnull %6)
  store ptr %11, ptr %9, align 8, !tbaa !41
  %.not22 = icmp eq ptr %11, null
  br i1 %.not22, label %17, label %12

12:                                               ; preds = %10
  %13 = load ptr, ptr %0, align 8, !tbaa !42
  store ptr %13, ptr %11, align 8, !tbaa !42
  %14 = getelementptr inbounds nuw i8, ptr %11, i64 456
  store double %3, ptr %14, align 8, !tbaa !43
  %15 = getelementptr inbounds nuw i8, ptr %11, i64 464
  store double 0.000000e+00, ptr %15, align 8, !tbaa !44
  %16 = getelementptr inbounds nuw i8, ptr %11, i64 440
  store double %4, ptr %16, align 8, !tbaa !45
  br label %17

17:                                               ; preds = %10, %5, %12
  %.0 = phi i1 [ true, %12 ], [ false, %5 ], [ false, %10 ]
  ret i1 %.0
}